target datalayout = "e-m:e-p270:32:32-p271:32:32-p272:64:64-i64:64-i128:128-f80:128-n8:16:32:64-S128"
target triple = "x86_64-pc-linux-gnu"

%"class.Ipopt::DenseVector" = type { %"class.Ipopt::Vector.base", ptr, ptr, ptr, i8, i8, double }
%"class.Ipopt::Vector.base" = type <{ %"class.Ipopt::TaggedObject", %"class.Ipopt::SmartPtr", %"class.Ipopt::CachedResults", i32, [4 x i8], double, i32, [4 x i8], double, i32, [4 x i8], double, i32, [4 x i8], double, i32, [4 x i8], double, i32, [4 x i8], double, i32, [4 x i8], double, i32, i8 }>
%"class.Ipopt::TaggedObject" = type { %"class.Ipopt::ReferencedObject.base", %"class.Ipopt::Subject", i32, i32 }
%"class.Ipopt::ReferencedObject.base" = type <{ ptr, i32 }>
%"class.Ipopt::Subject" = type { ptr, %"class.std::vector" }
%"class.std::vector" = type { %"struct.std::_Vector_base" }
%"struct.std::_Vector_base" = type { %"struct.std::_Vector_base<Ipopt::Observer *, std::allocator<Ipopt::Observer *>>::_Vector_impl" }
%"struct.std::_Vector_base<Ipopt::Observer *, std::allocator<Ipopt::Observer *>>::_Vector_impl" = type { %"struct.std::_Vector_base<Ipopt::Observer *, std::allocator<Ipopt::Observer *>>::_Vector_impl_data" }
%"struct.std::_Vector_base<Ipopt::Observer *, std::allocator<Ipopt::Observer *>>::_Vector_impl_data" = type { ptr, ptr, ptr }
%"class.Ipopt::SmartPtr" = type { ptr }
%"class.Ipopt::CachedResults" = type { ptr, i32, ptr }
%"class.Ipopt::Vector" = type <{ %"class.Ipopt::TaggedObject", %"class.Ipopt::SmartPtr", %"class.Ipopt::CachedResults", i32, [4 x i8], double, i32, [4 x i8], double, i32, [4 x i8], double, i32, [4 x i8], double, i32, [4 x i8], double, i32, [4 x i8], double, i32, [4 x i8], double, i32, i8, [3 x i8] }>
%"class.Ipopt::VectorSpace" = type { %"class.Ipopt::ReferencedObject.base", i32 }

; Function Attrs: mustprogress nounwind uwtable
define linkonce_odr noundef i32 @_ZNK5Ipopt11VectorSpace3DimEv(ptr noundef nonnull align 8 dereferenceable(16) %0) #1 comdat align 2 {
  %2 = alloca ptr, align 8
  store ptr %0, ptr %2, align 8
  %3 = load ptr, ptr %2, align 8
  %4 = getelementptr inbounds %"class.Ipopt::VectorSpace", ptr %3, i32 0, i32 1
  %5 = load i32, ptr %4, align 4
  ret i32 %5
}

; Function Attrs: mustprogress nounwind uwtable
define linkonce_odr noundef ptr @_ZNK5Ipopt8SmartPtrIKNS_11VectorSpaceEEptEv(ptr noundef nonnull align 8 dereferenceable(8) %0) #1 comdat align 2 {
  %2 = alloca ptr, align 8
  store ptr %0, ptr %2, align 8
  %3 = load ptr, ptr %2, align 8
  %4 = getelementptr inbounds %"class.Ipopt::SmartPtr", ptr %3, i32 0, i32 0
  %5 = load ptr, ptr %4, align 8
  ret ptr %5
}

; Function Attrs: mustprogress uwtable
define linkonce_odr noundef i32 @_ZNK5Ipopt6Vector3DimEv(ptr noundef nonnull align 8 dereferenceable(205) %0) #0 comdat align 2 {
  %2 = alloca ptr, align 8
  store ptr %0, ptr %2, align 8
  %3 = load ptr, ptr %2, align 8
  %4 = getelementptr inbounds %"class.Ipopt::Vector", ptr %3, i32 0, i32 1
  %5 = call noundef ptr @_ZNK5Ipopt8SmartPtrIKNS_11VectorSpaceEEptEv(ptr noundef nonnull align 8 dereferenceable(8) %4)
  %6 = call noundef i32 @_ZNK5Ipopt11VectorSpace3DimEv(ptr noundef nonnull align 8 dereferenceable(16) %5)
  ret i32 %6
}

; Function Attrs: mustprogress uwtable
define void @_ZN5Ipopt11DenseVector18ElementWiseSgnImplEv(ptr noundef nonnull align 8 dereferenceable(248) %0) unnamed_addr #0 align 2 {
  %2 = alloca ptr, align 8
  %3 = alloca i32, align 4
  store ptr %0, ptr %2, align 8
  %4 = load ptr, ptr %2, align 8
  %5 = getelementptr inbounds %"class.Ipopt::DenseVector", ptr %4, i32 0, i32 5
  %6 = load i8, ptr %5, align 1
  %7 = trunc i8 %6 to i1
  br i1 %7, label %8, label %24

8:                                                ; preds = %1
  %9 = getelementptr inbounds %"class.Ipopt::DenseVector", ptr %4, i32 0, i32 6
  %10 = load double, ptr %9, align 8
  %11 = fcmp ogt double %10, 0.000000e+00
  br i1 %11, label %12, label %14

12:                                               ; preds = %8
  %13 = getelementptr inbounds %"class.Ipopt::DenseVector", ptr %4, i32 0, i32 6
  store double 1.000000e+00, ptr %13, align 8
  br label %23

14:                                               ; preds = %8
  %15 = getelementptr inbounds %"class.Ipopt::DenseVector", ptr %4, i32 0, i32 6
  %16 = load double, ptr %15, align 8
  %17 = fcmp olt double %16, 0.000000e+00
  br i1 %17, label %18, label %20

18:                                               ; preds = %14
  %19 = getelementptr inbounds %"class.Ipopt::DenseVector", ptr %4, i32 0, i32 6
  store double -1.000000e+00, ptr %19, align 8
  br label %22

20:                                               ; preds = %14
  %21 = getelementptr inbounds %"class.Ipopt::DenseVector", ptr %4, i32 0, i32 6
  store double 0.000000e+00, ptr %21, align 8
  br label %22

22:                                               ; preds = %20, %18
  br label %23

23:                                               ; preds = %22, %12
  br label %69

24:                                               ; preds = %1
  store i32 0, ptr %3, align 4
  br label %25

25:                                               ; preds = %65, %24
  %26 = load i32, ptr %3, align 4
  %27 = call noundef i32 @_ZNK5Ipopt6Vector3DimEv(ptr noundef nonnull align 8 dereferenceable(205) %4)
  %28 = icmp slt i32 %26, %27
  br i1 %28, label %29, label %68

29:                                               ; preds = %25
  %30 = getelementptr inbounds %"class.Ipopt::DenseVector", ptr %4, i32 0, i32 2
  %31 = load ptr, ptr %30, align 8
  %32 = load i32, ptr %3, align 4
  %33 = sext i32 %32 to i64
  %34 = getelementptr inbounds double, ptr %31, i64 %33
  %35 = load double, ptr %34, align 8
  %36 = fcmp ogt double %35, 0.000000e+00
  br i1 %36, label %37, label %43

37:                                               ; preds = %29
  %38 = getelementptr inbounds %"class.Ipopt::DenseVector", ptr %4, i32 0, i32 2
  %39 = load ptr, ptr %38, align 8
  %40 = load i32, ptr %3, align 4
  %41 = sext i32 %40 to i64
  %42 = getelementptr inbounds double, ptr %39, i64 %41
  store double 1.000000e+00, ptr %42, align 8
  br label %64

43:                                               ; preds = %29
  %44 = getelementptr inbounds %"class.Ipopt::DenseVector", ptr %4, i32 0, i32 2
  %45 = load ptr, ptr %44, align 8
  %46 = load i32, ptr %3, align 4
  %47 = sext i32 %46 to i64
  %48 = getelementptr inbounds double, ptr %45, i64 %47
  %49 = load double, ptr %48, align 8
  %50 = fcmp olt double %49, 0.000000e+00
  br i1 %50, label %51, label %57

51:                                               ; preds = %43
  %52 = getelementptr inbounds %"class.Ipopt::DenseVector", ptr %4, i32 0, i32 2
  %53 = load ptr, ptr %52, align 8
  %54 = load i32, ptr %3, align 4
  %55 = sext i32 %54 to i64
  %56 = getelementptr inbounds double, ptr %53, i64 %55
  store double -1.000000e+00, ptr %56, align 8
  br label %63

57:                                               ; preds = %43
  %58 = getelementptr inbounds %"class.Ipopt::DenseVector", ptr %4, i32 0, i32 2
  %59 = load ptr, ptr %58, align 8
  %60 = load i32, ptr %3, align 4
  %61 = sext i32 %60 to i64
  %62 = getelementptr inbounds double, ptr %59, i64 %61
  store double 0.000000e+00, ptr %62, align 8
  br label %63

63:                                               ; preds = %57, %51
  br label %64

64:                                               ; preds = %63, %37
  br label %65

65:                                               ; preds = %64
  %66 = load i32, ptr %3, align 4
  %67 = add nsw i32 %66, 1
  store i32 %67, ptr %3, align 4
  br label %25, !llvm.loop !28

68:                                               ; preds = %25
  br label %69

69:                                               ; preds = %68, %23
  ret void
}