; Function Attrs: mustprogress nofree norecurse nosync nounwind memory(readwrite, inaccessiblemem: none) uwtable
define void @_ZN5Ipopt11DenseVector18ElementWiseSgnImplEv(ptr nocapture noundef nonnull align 8 dereferenceable(248) %0) unnamed_addr #8 align 2 {
  %2 = getelementptr inbounds i8, ptr %0, i64 233
  %3 = load i8, ptr %2, align 1
  %4 = and i8 %3, 1
  %.not = icmp eq i8 %4, 0
  br i1 %.not, label %.preheader, label %.loopexit.sink.split

.preheader:                                       ; preds = %1
  %5 = getelementptr inbounds i8, ptr %0, i64 56
  %6 = load ptr, ptr %5, align 8
  %7 = getelementptr inbounds i8, ptr %6, i64 12
  %8 = load i32, ptr %7, align 4
  %9 = icmp sgt i32 %8, 0
  br i1 %9, label %.lr.ph, label %.loopexit

.lr.ph:                                           ; preds = %.preheader
  %10 = getelementptr inbounds i8, ptr %0, i64 216
  br label %15

.loopexit.sink.split:                             ; preds = %1
  %11 = getelementptr inbounds i8, ptr %0, i64 240
  %12 = load double, ptr %11, align 8
  %13 = fcmp ogt double %12, 0.000000e+00
  %14 = fcmp olt double %12, 0.000000e+00
  %. = select i1 %14, double -1.000000e+00, double 0.000000e+00
  %.sink11 = select i1 %13, double 1.000000e+00, double %.
  store double %.sink11, ptr %11, align 8
  br label %.loopexit

15:                                               ; preds = %.lr.ph, %15
  %indvars.iv = phi i64 [ 0, %.lr.ph ], [ %indvars.iv.next, %15 ]
  %16 = load ptr, ptr %10, align 8
  %17 = getelementptr inbounds double, ptr %16, i64 %indvars.iv
  %18 = load double, ptr %17, align 8
  %19 = fcmp ogt double %18, 0.000000e+00
  %20 = fcmp olt double %18, 0.000000e+00
  %.12 = select i1 %20, double -1.000000e+00, double 0.000000e+00
  %.sink = select i1 %19, double 1.000000e+00, double %.12
  store double %.sink, ptr %17, align 8
  %indvars.iv.next = add nuw nsw i64 %indvars.iv, 1
  %21 = load ptr, ptr %5, align 8
  %22 = getelementptr inbounds i8, ptr %21, i64 12
  %23 = load i32, ptr %22, align 4
  %24 = sext i32 %23 to i64
  %25 = icmp slt i64 %indvars.iv.next, %24
  br i1 %25, label %15, label %.loopexit, !llvm.loop !30

.loopexit:                                        ; preds = %15, %.loopexit.sink.split, %.preheader
  ret void
}